; Function Attrs: nounwind uwtable
define ptr @l_Std_DTreeMap_Internal_Impl_foldlM___at_Lean_Server_References_allRefsFor___spec__3(ptr noundef %0, ptr noundef %1) local_unnamed_addr #0 {
  br label %3

3:                                                ; preds = %lean_alloc_ctor.exit, %2
  %.018 = phi ptr [ %1, %2 ], [ %21, %lean_alloc_ctor.exit ]
  %.0 = phi ptr [ %0, %2 ], [ %45, %lean_alloc_ctor.exit ]
  %4 = ptrtoint ptr %.018 to i64
  %5 = and i64 %4, 1
  %.not.i = icmp eq i64 %5, 0
  br i1 %.not.i, label %9, label %6

6:                                                ; preds = %3
  %7 = lshr i64 %4, 1
  %8 = trunc i64 %7 to i32
  br label %lean_obj_tag.exit

9:                                                ; preds = %3
  %10 = getelementptr i8, ptr %.018, i64 4
  %.val.i = load i32, ptr %10, align 4
  %11 = lshr i32 %.val.i, 24
  br label %lean_obj_tag.exit

lean_obj_tag.exit:                                ; preds = %6, %9
  %.0.i = phi i32 [ %8, %6 ], [ %11, %9 ]
  %12 = icmp eq i32 %.0.i, 0
  br i1 %12, label %13, label %46

13:                                               ; preds = %lean_obj_tag.exit
  %14 = getelementptr inbounds nuw i8, ptr %.018, i64 16
  %15 = load ptr, ptr %14, align 8, !tbaa !4
  %16 = getelementptr inbounds nuw i8, ptr %.018, i64 24
  %17 = load ptr, ptr %16, align 8, !tbaa !4
  %18 = getelementptr inbounds nuw i8, ptr %.018, i64 32
  %19 = load ptr, ptr %18, align 8, !tbaa !4
  %20 = getelementptr inbounds nuw i8, ptr %.018, i64 40
  %21 = load ptr, ptr %20, align 8, !tbaa !4
  %22 = tail call ptr @l_Std_DTreeMap_Internal_Impl_foldlM___at_Lean_Server_References_allRefsFor___spec__3(ptr noundef %.0, ptr noundef %19)
  %23 = ptrtoint ptr %17 to i64
  %24 = and i64 %23, 1
  %.not = icmp eq i64 %24, 0
  br i1 %.not, label %25, label %lean_inc.exit19

25:                                               ; preds = %13
  %.val.i20 = load i32, ptr %17, align 4, !tbaa !8
  %26 = icmp sgt i32 %.val.i20, 0
  br i1 %26, label %27, label %29, !prof !11

27:                                               ; preds = %25
  %28 = add nuw i32 %.val.i20, 1
  store i32 %28, ptr %17, align 4, !tbaa !8
  br label %lean_inc.exit19

29:                                               ; preds = %25
  %.not.i21 = icmp eq i32 %.val.i20, 0
  br i1 %.not.i21, label %lean_inc.exit19, label %30

30:                                               ; preds = %29
  tail call void @lean_inc_ref_cold(ptr noundef nonnull %17) #8
  br label %lean_inc.exit19

lean_inc.exit19:                                  ; preds = %30, %29, %27, %13
  %31 = ptrtoint ptr %15 to i64
  %32 = and i64 %31, 1
  %.not25 = icmp eq i64 %32, 0
  br i1 %.not25, label %33, label %lean_inc.exit

33:                                               ; preds = %lean_inc.exit19
  %.val.i22 = load i32, ptr %15, align 4, !tbaa !8
  %34 = icmp sgt i32 %.val.i22, 0
  br i1 %34, label %35, label %37, !prof !11

35:                                               ; preds = %33
  %36 = add nuw i32 %.val.i22, 1
  store i32 %36, ptr %15, align 4, !tbaa !8
  br label %lean_inc.exit

37:                                               ; preds = %33
  %.not.i23 = icmp eq i32 %.val.i22, 0
  br i1 %.not.i23, label %lean_inc.exit, label %38

38:                                               ; preds = %37
  tail call void @lean_inc_ref_cold(ptr noundef nonnull %15) #8
  br label %lean_inc.exit

lean_inc.exit:                                    ; preds = %38, %37, %35, %lean_inc.exit19
  tail call void @lean_inc_heartbeat() #8
  %39 = tail call noalias ptr @mi_malloc_small(i64 noundef 24) #8
  %40 = icmp eq ptr %39, null
  br i1 %40, label %41, label %lean_alloc_ctor.exit

41:                                               ; preds = %lean_inc.exit
  tail call void @lean_internal_panic_out_of_memory() #9
  unreachable

lean_alloc_ctor.exit:                             ; preds = %lean_inc.exit
  %42 = getelementptr inbounds nuw i8, ptr %39, i64 4
  store i32 1, ptr %39, align 4, !tbaa !8
  store i32 131096, ptr %42, align 4
  %43 = getelementptr inbounds nuw i8, ptr %39, i64 8
  store ptr %15, ptr %43, align 8, !tbaa !4
  %44 = getelementptr inbounds nuw i8, ptr %39, i64 16
  store ptr %17, ptr %44, align 8, !tbaa !4
  %45 = tail call ptr @lean_array_push(ptr noundef %22, ptr noundef nonnull %39) #8
  br label %3

46:                                               ; preds = %lean_obj_tag.exit
  ret ptr %.0
}